; Function Attrs: nounwind uwtable
define ptr @l_Array_forIn_x27Unsafe_loop___at_Lean_Elab_Tactic_InfoTrees_elabInfoTrees___spec__4___boxed(ptr noundef %0, ptr noundef %1, ptr noundef %2, ptr noundef %3, ptr noundef %4, ptr noundef %5, ptr noundef %6, ptr noundef %7, ptr noundef %8, ptr noundef %9, ptr noundef %10, ptr noundef %11) local_unnamed_addr #0 {
  %13 = getelementptr i8, ptr %6, i64 8
  %.val = load i64, ptr %13, align 8, !tbaa !14
  %14 = ptrtoint ptr %6 to i64
  %15 = and i64 %14, 1
  %.not = icmp eq i64 %15, 0
  br i1 %.not, label %16, label %lean_dec.exit28

16:                                               ; preds = %12
  %17 = load i32, ptr %6, align 4, !tbaa !8
  %18 = icmp sgt i32 %17, 1
  br i1 %18, label %19, label %21, !prof !13

19:                                               ; preds = %16
  %20 = add nsw i32 %17, -1
  store i32 %20, ptr %6, align 4, !tbaa !8
  br label %lean_dec.exit28

21:                                               ; preds = %16
  %.not.i = icmp eq i32 %17, 0
  br i1 %.not.i, label %lean_dec.exit28, label %22

22:                                               ; preds = %21
  tail call void @lean_dec_ref_cold(ptr noundef nonnull %6) #4
  br label %lean_dec.exit28

lean_dec.exit28:                                  ; preds = %22, %21, %19, %12
  %23 = getelementptr i8, ptr %7, i64 8
  %.val43 = load i64, ptr %23, align 8, !tbaa !14
  %24 = ptrtoint ptr %7 to i64
  %25 = and i64 %24, 1
  %.not44 = icmp eq i64 %25, 0
  br i1 %.not44, label %26, label %lean_dec.exit27

26:                                               ; preds = %lean_dec.exit28
  %27 = load i32, ptr %7, align 4, !tbaa !8
  %28 = icmp sgt i32 %27, 1
  br i1 %28, label %29, label %31, !prof !13

29:                                               ; preds = %26
  %30 = add nsw i32 %27, -1
  store i32 %30, ptr %7, align 4, !tbaa !8
  br label %lean_dec.exit27

31:                                               ; preds = %26
  %.not.i29 = icmp eq i32 %27, 0
  br i1 %.not.i29, label %lean_dec.exit27, label %32

32:                                               ; preds = %31
  tail call void @lean_dec_ref_cold(ptr noundef nonnull %7) #4
  br label %lean_dec.exit27

lean_dec.exit27:                                  ; preds = %32, %31, %29, %lean_dec.exit28
  %33 = tail call ptr @l_Array_forIn_x27Unsafe_loop___at_Lean_Elab_Tactic_InfoTrees_elabInfoTrees___spec__4(ptr noundef %0, ptr noundef %1, ptr poison, ptr poison, ptr noundef %4, ptr noundef %5, i64 noundef %.val, i64 noundef %.val43, ptr noundef %8, ptr noundef %9, ptr noundef %10, ptr noundef %11)
  %34 = ptrtoint ptr %10 to i64
  %35 = and i64 %34, 1
  %.not45 = icmp eq i64 %35, 0
  br i1 %.not45, label %36, label %lean_dec.exit26

36:                                               ; preds = %lean_dec.exit27
  %37 = load i32, ptr %10, align 4, !tbaa !8
  %38 = icmp sgt i32 %37, 1
  br i1 %38, label %39, label %41, !prof !13

39:                                               ; preds = %36
  %40 = add nsw i32 %37, -1
  store i32 %40, ptr %10, align 4, !tbaa !8
  br label %lean_dec.exit26

41:                                               ; preds = %36
  %.not.i31 = icmp eq i32 %37, 0
  br i1 %.not.i31, label %lean_dec.exit26, label %42

42:                                               ; preds = %41
  tail call void @lean_dec_ref_cold(ptr noundef nonnull %10) #4
  br label %lean_dec.exit26

lean_dec.exit26:                                  ; preds = %42, %41, %39, %lean_dec.exit27
  %43 = ptrtoint ptr %5 to i64
  %44 = and i64 %43, 1
  %.not46 = icmp eq i64 %44, 0
  br i1 %.not46, label %45, label %lean_dec.exit25

45:                                               ; preds = %lean_dec.exit26
  %46 = load i32, ptr %5, align 4, !tbaa !8
  %47 = icmp sgt i32 %46, 1
  br i1 %47, label %48, label %50, !prof !13

48:                                               ; preds = %45
  %49 = add nsw i32 %46, -1
  store i32 %49, ptr %5, align 4, !tbaa !8
  br label %lean_dec.exit25

50:                                               ; preds = %45
  %.not.i33 = icmp eq i32 %46, 0
  br i1 %.not.i33, label %lean_dec.exit25, label %51

51:                                               ; preds = %50
  tail call void @lean_dec_ref_cold(ptr noundef nonnull %5) #4
  br label %lean_dec.exit25

lean_dec.exit25:                                  ; preds = %51, %50, %48, %lean_dec.exit26
  %52 = ptrtoint ptr %3 to i64
  %53 = and i64 %52, 1
  %.not47 = icmp eq i64 %53, 0
  br i1 %.not47, label %54, label %lean_dec.exit24

54:                                               ; preds = %lean_dec.exit25
  %55 = load i32, ptr %3, align 4, !tbaa !8
  %56 = icmp sgt i32 %55, 1
  br i1 %56, label %57, label %59, !prof !13

57:                                               ; preds = %54
  %58 = add nsw i32 %55, -1
  store i32 %58, ptr %3, align 4, !tbaa !8
  br label %lean_dec.exit24

59:                                               ; preds = %54
  %.not.i35 = icmp eq i32 %55, 0
  br i1 %.not.i35, label %lean_dec.exit24, label %60

60:                                               ; preds = %59
  tail call void @lean_dec_ref_cold(ptr noundef nonnull %3) #4
  br label %lean_dec.exit24

lean_dec.exit24:                                  ; preds = %60, %59, %57, %lean_dec.exit25
  %61 = ptrtoint ptr %2 to i64
  %62 = and i64 %61, 1
  %.not48 = icmp eq i64 %62, 0
  br i1 %.not48, label %63, label %lean_dec.exit23

63:                                               ; preds = %lean_dec.exit24
  %64 = load i32, ptr %2, align 4, !tbaa !8
  %65 = icmp sgt i32 %64, 1
  br i1 %65, label %66, label %68, !prof !13

66:                                               ; preds = %63
  %67 = add nsw i32 %64, -1
  store i32 %67, ptr %2, align 4, !tbaa !8
  br label %lean_dec.exit23

68:                                               ; preds = %63
  %.not.i37 = icmp eq i32 %64, 0
  br i1 %.not.i37, label %lean_dec.exit23, label %69

69:                                               ; preds = %68
  tail call void @lean_dec_ref_cold(ptr noundef nonnull %2) #4
  br label %lean_dec.exit23

lean_dec.exit23:                                  ; preds = %69, %68, %66, %lean_dec.exit24
  %70 = ptrtoint ptr %1 to i64
  %71 = and i64 %70, 1
  %.not49 = icmp eq i64 %71, 0
  br i1 %.not49, label %72, label %lean_dec.exit22

72:                                               ; preds = %lean_dec.exit23
  %73 = load i32, ptr %1, align 4, !tbaa !8
  %74 = icmp sgt i32 %73, 1
  br i1 %74, label %75, label %77, !prof !13

75:                                               ; preds = %72
  %76 = add nsw i32 %73, -1
  store i32 %76, ptr %1, align 4, !tbaa !8
  br label %lean_dec.exit22

77:                                               ; preds = %72
  %.not.i39 = icmp eq i32 %73, 0
  br i1 %.not.i39, label %lean_dec.exit22, label %78

78:                                               ; preds = %77
  tail call void @lean_dec_ref_cold(ptr noundef nonnull %1) #4
  br label %lean_dec.exit22

lean_dec.exit22:                                  ; preds = %78, %77, %75, %lean_dec.exit23
  %79 = ptrtoint ptr %0 to i64
  %80 = and i64 %79, 1
  %.not50 = icmp eq i64 %80, 0
  br i1 %.not50, label %81, label %lean_dec.exit

81:                                               ; preds = %lean_dec.exit22
  %82 = load i32, ptr %0, align 4, !tbaa !8
  %83 = icmp sgt i32 %82, 1
  br i1 %83, label %84, label %86, !prof !13

84:                                               ; preds = %81
  %85 = add nsw i32 %82, -1
  store i32 %85, ptr %0, align 4, !tbaa !8
  br label %lean_dec.exit

86:                                               ; preds = %81
  %.not.i41 = icmp eq i32 %82, 0
  br i1 %.not.i41, label %lean_dec.exit, label %87

87:                                               ; preds = %86
  tail call void @lean_dec_ref_cold(ptr noundef nonnull %0) #4
  br label %lean_dec.exit

lean_dec.exit:                                    ; preds = %87, %86, %84, %lean_dec.exit22
  ret ptr %33
}